target datalayout = "e-m:e-p270:32:32-p271:32:32-p272:64:64-i64:64-i128:128-f80:128-n8:16:32:64-S128"
target triple = "x86_64-pc-linux-gnu"

; Function Attrs: nounwind uwtable
define dso_local ptr @ziplistPush(ptr noundef %0, ptr noundef %1, i32 noundef %2, i32 noundef %3) #0 {
  %5 = alloca ptr, align 8
  %6 = alloca ptr, align 8
  %7 = alloca i32, align 4
  %8 = alloca i32, align 4
  %9 = alloca ptr, align 8
  store ptr %0, ptr %5, align 8, !tbaa !5
  store ptr %1, ptr %6, align 8, !tbaa !5
  store i32 %2, ptr %7, align 4, !tbaa !12
  store i32 %3, ptr %8, align 4, !tbaa !12
  call void @llvm.lifetime.start.p0(i64 8, ptr %9) #11
  %10 = load i32, ptr %8, align 4, !tbaa !12
  %11 = icmp eq i32 %10, 0
  br i1 %11, label %12, label %15

12:                                               ; preds = %4
  %13 = load ptr, ptr %5, align 8, !tbaa !5
  %14 = getelementptr inbounds nuw i8, ptr %13, i64 10
  br label %22

15:                                               ; preds = %4
  %16 = load ptr, ptr %5, align 8, !tbaa !5
  %17 = load ptr, ptr %5, align 8, !tbaa !5
  %18 = load i32, ptr %17, align 4, !tbaa !12
  %19 = zext i32 %18 to i64
  %20 = getelementptr inbounds nuw i8, ptr %16, i64 %19
  %21 = getelementptr inbounds i8, ptr %20, i64 -1
  br label %22

22:                                               ; preds = %15, %12
  %23 = phi ptr [ %14, %12 ], [ %21, %15 ]
  store ptr %23, ptr %9, align 8, !tbaa !5
  %24 = load ptr, ptr %5, align 8, !tbaa !5
  %25 = load ptr, ptr %9, align 8, !tbaa !5
  %26 = load ptr, ptr %6, align 8, !tbaa !5
  %27 = load i32, ptr %7, align 4, !tbaa !12
  %28 = call ptr @__ziplistInsert(ptr noundef %24, ptr noundef %25, ptr noundef %26, i32 noundef %27)
  call void @llvm.lifetime.end.p0(i64 8, ptr %9) #11
  ret ptr %28
}