; Function Attrs: nounwind uwtable
define dso_local noundef ptr @ziplistPush(ptr noundef %0, ptr noundef %1, i32 noundef %2, i32 noundef %3) local_unnamed_addr #5 {
  %5 = icmp eq i32 %3, 0
  br i1 %5, label %6, label %8

6:                                                ; preds = %4
  %7 = getelementptr inbounds nuw i8, ptr %0, i64 10
  br label %13

8:                                                ; preds = %4
  %9 = load i32, ptr %0, align 4, !tbaa !5
  %10 = zext i32 %9 to i64
  %11 = getelementptr inbounds nuw i8, ptr %0, i64 %10
  %12 = getelementptr inbounds i8, ptr %11, i64 -1
  br label %13

13:                                               ; preds = %8, %6
  %14 = phi ptr [ %7, %6 ], [ %12, %8 ]
  %15 = tail call ptr @__ziplistInsert(ptr noundef %0, ptr noundef nonnull %14, ptr noundef %1, i32 noundef %2)
  ret ptr %15
}